target datalayout = "e-m:e-p270:32:32-p271:32:32-p272:64:64-i64:64-i128:128-f80:128-n8:16:32:64-S128"
target triple = "x86_64-pc-linux-gnu"

%struct.evp_pkey_method_st = type { i32, i32, ptr, ptr, ptr, ptr, ptr, ptr, ptr, ptr, ptr, ptr, ptr, ptr, ptr, ptr, ptr, ptr, ptr, ptr, ptr, ptr, ptr, ptr, ptr, ptr, ptr, ptr, ptr, ptr, ptr, ptr, ptr }
%struct.evp_pkey_ctx_st = type { i32, ptr, ptr, ptr, ptr, %union.anon, %struct.anon.4, ptr, ptr, ptr, i32, i32, ptr, ptr, ptr, ptr, ptr, i8, ptr }
%union.anon = type { %struct.anon.0 }
%struct.anon.0 = type { ptr, ptr }
%struct.anon.4 = type { ptr, ptr, i64, i8 }

@.str = private unnamed_addr constant [34 x i8] c"../openssl/crypto/evp/pmeth_lib.c\00", align 1
@.str.16 = private unnamed_addr constant [7 x i8] c"distid\00", align 1
@.str.17 = private unnamed_addr constant [10 x i8] c"hexdistid\00", align 1

; Function Attrs: nounwind uwtable
define internal i32 @decode_cmd(i32 noundef %0, ptr noundef %1) #0 {
  %3 = alloca i32, align 4
  %4 = alloca ptr, align 8
  store i32 %0, ptr %3, align 4, !tbaa !3
  store ptr %1, ptr %4, align 8, !tbaa !33
  %5 = load i32, ptr %3, align 4, !tbaa !3
  %6 = icmp eq i32 %5, -1
  br i1 %6, label %7, label %29

7:                                                ; preds = %2
  %8 = load ptr, ptr %4, align 8, !tbaa !33
  %9 = icmp ne ptr %8, null
  %10 = zext i1 %9 to i32
  %11 = icmp ne i32 %10, 0
  %12 = xor i1 %11, true
  %13 = xor i1 %12, true
  %14 = zext i1 %13 to i32
  %15 = sext i32 %14 to i64
  %16 = call i64 @llvm.expect.i64(i64 %15, i64 1)
  %17 = icmp ne i64 %16, 0
  br i1 %17, label %18, label %28

18:                                               ; preds = %7
  %19 = load ptr, ptr %4, align 8, !tbaa !33
  %20 = call i32 @strcmp(ptr noundef %19, ptr noundef @.str.16) #9
  %21 = icmp eq i32 %20, 0
  br i1 %21, label %26, label %22

22:                                               ; preds = %18
  %23 = load ptr, ptr %4, align 8, !tbaa !33
  %24 = call i32 @strcmp(ptr noundef %23, ptr noundef @.str.17) #9
  %25 = icmp eq i32 %24, 0
  br i1 %25, label %26, label %27

26:                                               ; preds = %22, %18
  store i32 15, ptr %3, align 4, !tbaa !3
  br label %27

27:                                               ; preds = %26, %22
  br label %28

28:                                               ; preds = %27, %7
  br label %29

29:                                               ; preds = %28, %2
  %30 = load i32, ptr %3, align 4, !tbaa !3
  ret i32 %30
}

; Function Attrs: nounwind uwtable
define internal void @evp_pkey_ctx_free_cached_data(ptr noundef %0, i32 noundef %1, ptr noundef %2) #0 {
  %4 = alloca ptr, align 8
  %5 = alloca i32, align 4
  %6 = alloca ptr, align 8
  store ptr %0, ptr %4, align 8, !tbaa !18
  store i32 %1, ptr %5, align 4, !tbaa !3
  store ptr %2, ptr %6, align 8, !tbaa !33
  %7 = load i32, ptr %5, align 4, !tbaa !3
  %8 = load ptr, ptr %6, align 8, !tbaa !33
  %9 = call i32 @decode_cmd(i32 noundef %7, ptr noundef %8)
  store i32 %9, ptr %5, align 4, !tbaa !3
  %10 = load i32, ptr %5, align 4, !tbaa !3
  switch i32 %10, label %26 [
    i32 15, label %11
  ]

11:                                               ; preds = %3
  %12 = load ptr, ptr %4, align 8, !tbaa !18
  %13 = getelementptr inbounds nuw %struct.evp_pkey_ctx_st, ptr %12, i32 0, i32 6
  %14 = getelementptr inbounds nuw %struct.anon.4, ptr %13, i32 0, i32 1
  %15 = load ptr, ptr %14, align 8, !tbaa !115
  call void @CRYPTO_free(ptr noundef %15, ptr noundef @.str, i32 noundef 1516)
  %16 = load ptr, ptr %4, align 8, !tbaa !18
  %17 = getelementptr inbounds nuw %struct.evp_pkey_ctx_st, ptr %16, i32 0, i32 6
  %18 = getelementptr inbounds nuw %struct.anon.4, ptr %17, i32 0, i32 0
  %19 = load ptr, ptr %18, align 8, !tbaa !114
  call void @CRYPTO_free(ptr noundef %19, ptr noundef @.str, i32 noundef 1517)
  %20 = load ptr, ptr %4, align 8, !tbaa !18
  %21 = getelementptr inbounds nuw %struct.evp_pkey_ctx_st, ptr %20, i32 0, i32 6
  %22 = getelementptr inbounds nuw %struct.anon.4, ptr %21, i32 0, i32 1
  store ptr null, ptr %22, align 8, !tbaa !115
  %23 = load ptr, ptr %4, align 8, !tbaa !18
  %24 = getelementptr inbounds nuw %struct.evp_pkey_ctx_st, ptr %23, i32 0, i32 6
  %25 = getelementptr inbounds nuw %struct.anon.4, ptr %24, i32 0, i32 0
  store ptr null, ptr %25, align 8, !tbaa !114
  br label %26

26:                                               ; preds = %3, %11
  ret void
}

; Function Attrs: nounwind uwtable
define internal void @evp_pkey_ctx_free_all_cached_data(ptr noundef %0) #0 {
  %2 = alloca ptr, align 8
  store ptr %0, ptr %2, align 8, !tbaa !18
  %3 = load ptr, ptr %2, align 8, !tbaa !18
  call void @evp_pkey_ctx_free_cached_data(ptr noundef %3, i32 noundef 15, ptr noundef null)
  ret void
}

; Function Attrs: nounwind uwtable
define void @EVP_PKEY_CTX_free(ptr noundef %0) #0 {
  %2 = alloca ptr, align 8
  store ptr %0, ptr %2, align 8, !tbaa !18
  %3 = load ptr, ptr %2, align 8, !tbaa !18
  %4 = icmp eq ptr %3, null
  br i1 %4, label %5, label %6

5:                                                ; preds = %1
  br label %48

6:                                                ; preds = %1
  %7 = load ptr, ptr %2, align 8, !tbaa !18
  %8 = getelementptr inbounds nuw %struct.evp_pkey_ctx_st, ptr %7, i32 0, i32 12
  %9 = load ptr, ptr %8, align 8, !tbaa !55
  %10 = icmp ne ptr %9, null
  br i1 %10, label %11, label %25

11:                                               ; preds = %6
  %12 = load ptr, ptr %2, align 8, !tbaa !18
  %13 = getelementptr inbounds nuw %struct.evp_pkey_ctx_st, ptr %12, i32 0, i32 12
  %14 = load ptr, ptr %13, align 8, !tbaa !55
  %15 = getelementptr inbounds nuw %struct.evp_pkey_method_st, ptr %14, i32 0, i32 4
  %16 = load ptr, ptr %15, align 8, !tbaa !67
  %17 = icmp ne ptr %16, null
  br i1 %17, label %18, label %25

18:                                               ; preds = %11
  %19 = load ptr, ptr %2, align 8, !tbaa !18
  %20 = getelementptr inbounds nuw %struct.evp_pkey_ctx_st, ptr %19, i32 0, i32 12
  %21 = load ptr, ptr %20, align 8, !tbaa !55
  %22 = getelementptr inbounds nuw %struct.evp_pkey_method_st, ptr %21, i32 0, i32 4
  %23 = load ptr, ptr %22, align 8, !tbaa !67
  %24 = load ptr, ptr %2, align 8, !tbaa !18
  call void %23(ptr noundef %24)
  br label %25

25:                                               ; preds = %18, %11, %6
  %26 = load ptr, ptr %2, align 8, !tbaa !18
  call void @evp_pkey_ctx_free_old_ops(ptr noundef %26)
  %27 = load ptr, ptr %2, align 8, !tbaa !18
  call void @evp_pkey_ctx_free_all_cached_data(ptr noundef %27)
  %28 = load ptr, ptr %2, align 8, !tbaa !18
  %29 = getelementptr inbounds nuw %struct.evp_pkey_ctx_st, ptr %28, i32 0, i32 4
  %30 = load ptr, ptr %29, align 8, !tbaa !52
  call void @EVP_KEYMGMT_free(ptr noundef %30)
  %31 = load ptr, ptr %2, align 8, !tbaa !18
  %32 = getelementptr inbounds nuw %struct.evp_pkey_ctx_st, ptr %31, i32 0, i32 2
  %33 = load ptr, ptr %32, align 8, !tbaa !49
  call void @CRYPTO_free(ptr noundef %33, ptr noundef @.str, i32 noundef 400)
  %34 = load ptr, ptr %2, align 8, !tbaa !18
  %35 = getelementptr inbounds nuw %struct.evp_pkey_ctx_st, ptr %34, i32 0, i32 14
  %36 = load ptr, ptr %35, align 8, !tbaa !56
  call void @EVP_PKEY_free(ptr noundef %36)
  %37 = load ptr, ptr %2, align 8, !tbaa !18
  %38 = getelementptr inbounds nuw %struct.evp_pkey_ctx_st, ptr %37, i32 0, i32 15
  %39 = load ptr, ptr %38, align 8, !tbaa !68
  call void @EVP_PKEY_free(ptr noundef %39)
  %40 = load ptr, ptr %2, align 8, !tbaa !18
  %41 = getelementptr inbounds nuw %struct.evp_pkey_ctx_st, ptr %40, i32 0, i32 13
  %42 = load ptr, ptr %41, align 8, !tbaa !54
  %43 = call i32 @ENGINE_finish(ptr noundef %42)
  %44 = load ptr, ptr %2, align 8, !tbaa !18
  %45 = getelementptr inbounds nuw %struct.evp_pkey_ctx_st, ptr %44, i32 0, i32 18
  %46 = load ptr, ptr %45, align 8, !tbaa !69
  call void @BN_free(ptr noundef %46)
  %47 = load ptr, ptr %2, align 8, !tbaa !18
  call void @CRYPTO_free(ptr noundef %47, ptr noundef @.str, i32 noundef 407)
  br label %48

48:                                               ; preds = %25, %5
  ret void
}