; Function Attrs: nounwind uwtable
define void @EVP_PKEY_CTX_free(ptr noundef %0) local_unnamed_addr #0 {
  %2 = icmp eq ptr %0, null
  br i1 %2, label %28, label %3

3:                                                ; preds = %1
  %4 = getelementptr inbounds nuw i8, ptr %0, i64 120
  %5 = load ptr, ptr %4, align 8, !tbaa !46
  %.not = icmp eq ptr %5, null
  br i1 %.not, label %10, label %6

6:                                                ; preds = %3
  %7 = getelementptr inbounds nuw i8, ptr %5, i64 24
  %8 = load ptr, ptr %7, align 8, !tbaa !58
  %.not16 = icmp eq ptr %8, null
  br i1 %.not16, label %10, label %9

9:                                                ; preds = %6
  tail call void %8(ptr noundef nonnull %0) #10
  br label %10

10:                                               ; preds = %9, %6, %3
  tail call void @evp_pkey_ctx_free_old_ops(ptr noundef nonnull %0)
  %11 = getelementptr inbounds nuw i8, ptr %0, i64 56
  %12 = getelementptr inbounds nuw i8, ptr %0, i64 64
  %13 = load ptr, ptr %12, align 8, !tbaa !59
  tail call void @CRYPTO_free(ptr noundef %13, ptr noundef nonnull @.str, i32 noundef 1516) #10
  %14 = load ptr, ptr %11, align 8, !tbaa !60
  tail call void @CRYPTO_free(ptr noundef %14, ptr noundef nonnull @.str, i32 noundef 1517) #10
  tail call void @llvm.memset.p0.i64(ptr noundef nonnull align 8 dereferenceable(16) %11, i8 0, i64 16, i1 false)
  %15 = getelementptr inbounds nuw i8, ptr %0, i64 32
  %16 = load ptr, ptr %15, align 8, !tbaa !43
  tail call void @EVP_KEYMGMT_free(ptr noundef %16) #10
  %17 = getelementptr inbounds nuw i8, ptr %0, i64 16
  %18 = load ptr, ptr %17, align 8, !tbaa !40
  tail call void @CRYPTO_free(ptr noundef %18, ptr noundef nonnull @.str, i32 noundef 400) #10
  %19 = getelementptr inbounds nuw i8, ptr %0, i64 136
  %20 = load ptr, ptr %19, align 8, !tbaa !47
  tail call void @EVP_PKEY_free(ptr noundef %20) #10
  %21 = getelementptr inbounds nuw i8, ptr %0, i64 144
  %22 = load ptr, ptr %21, align 8, !tbaa !61
  tail call void @EVP_PKEY_free(ptr noundef %22) #10
  %23 = getelementptr inbounds nuw i8, ptr %0, i64 128
  %24 = load ptr, ptr %23, align 8, !tbaa !45
  %25 = tail call i32 @ENGINE_finish(ptr noundef %24) #10
  %26 = getelementptr inbounds nuw i8, ptr %0, i64 168
  %27 = load ptr, ptr %26, align 8, !tbaa !62
  tail call void @BN_free(ptr noundef %27) #10
  tail call void @CRYPTO_free(ptr noundef nonnull %0, ptr noundef nonnull @.str, i32 noundef 407) #10
  br label %28

28:                                               ; preds = %1, %10
  ret void
}